target datalayout = "e-m:e-p270:32:32-p271:32:32-p272:64:64-i64:64-i128:128-f80:128-n8:16:32:64-S128"
target triple = "x86_64-unknown-linux-gnu"

%"class.google::protobuf::io::ArrayInputStream" = type { %"class.google::protobuf::io::ZeroCopyInputStream", ptr, i32, i32, i32, i32 }
%"class.google::protobuf::io::ZeroCopyInputStream" = type { ptr }
%"class.absl::lts_20230802::log_internal::LogMessageFatal" = type { %"class.absl::lts_20230802::log_internal::LogMessage" }
%"class.absl::lts_20230802::log_internal::LogMessage" = type { %"class.absl::lts_20230802::base_internal::ErrnoSaver", %"class.std::unique_ptr" }
%"class.absl::lts_20230802::base_internal::ErrnoSaver" = type { i32 }
%"class.std::unique_ptr" = type { %"struct.std::__uniq_ptr_data" }
%"struct.std::__uniq_ptr_data" = type { %"class.std::__uniq_ptr_impl" }
%"class.std::__uniq_ptr_impl" = type { %"class.std::tuple" }
%"class.std::tuple" = type { %"struct.std::_Tuple_impl" }
%"struct.std::_Tuple_impl" = type { %"struct.std::_Head_base.1" }
%"struct.std::_Head_base.1" = type { ptr }
%"class.std::basic_string_view" = type { i64, ptr }

@.str = private unnamed_addr constant [24 x i8] c"last_returned_size_ > 0\00", align 1
@.str.1 = private unnamed_addr constant [148 x i8] c"generated/home/dtcxzyw/WorkSpace/Projects/compilers/llvm-opt-benchmark/bench/protobuf/protobuf/src/google/protobuf/io/zero_copy_stream_impl_lite.cc\00", align 1
@.str.2 = private unnamed_addr constant [55 x i8] c"BackUp() can only be called after a successful Next().\00", align 1
@.str.3 = private unnamed_addr constant [29 x i8] c"count <= last_returned_size_\00", align 1
@.str.4 = private unnamed_addr constant [11 x i8] c"count >= 0\00", align 1

; Function Attrs: mustprogress uwtable
define linkonce_odr hidden noundef ptr @_ZN4absl12lts_2023080212log_internal12Check_GEImplIiiEEPNSt7__cxx1112basic_stringIcSt11char_traitsIcESaIcEEERKT_RKT0_PKc(ptr noundef nonnull align 4 dereferenceable(4) %v1, ptr noundef nonnull align 4 dereferenceable(4) %v2, ptr noundef %exprtext) #5 comdat {
entry:
  %v1.addr = alloca ptr, align 8
  %v2.addr = alloca ptr, align 8
  %exprtext.addr = alloca ptr, align 8
  store ptr %v1, ptr %v1.addr, align 8
  store ptr %v2, ptr %v2.addr, align 8
  store ptr %exprtext, ptr %exprtext.addr, align 8
  %0 = load ptr, ptr %v1.addr, align 8
  %1 = load i32, ptr %0, align 4
  %2 = load ptr, ptr %v2.addr, align 8
  %3 = load i32, ptr %2, align 4
  %cmp = icmp sge i32 %1, %3
  br i1 %cmp, label %cond.true, label %cond.false

cond.true:                                        ; preds = %entry
  br label %cond.end

cond.false:                                       ; preds = %entry
  %4 = load ptr, ptr %v1.addr, align 8
  %5 = load i32, ptr %4, align 4
  %conv = sext i32 %5 to i64
  %6 = load ptr, ptr %v2.addr, align 8
  %7 = load i32, ptr %6, align 4
  %conv1 = sext i32 %7 to i64
  %8 = load ptr, ptr %exprtext.addr, align 8
  %call = call noundef nonnull ptr @_ZN4absl12lts_2023080212log_internal17MakeCheckOpStringIllEEPNSt7__cxx1112basic_stringIcSt11char_traitsIcESaIcEEET_T0_PKc(i64 noundef %conv, i64 noundef %conv1, ptr noundef %8)
  br label %cond.end

cond.end:                                         ; preds = %cond.false, %cond.true
  %cond = phi ptr [ null, %cond.true ], [ %call, %cond.false ]
  ret ptr %cond
}

; Function Attrs: mustprogress uwtable
define linkonce_odr hidden noundef ptr @_ZN4absl12lts_2023080212log_internal12Check_LEImplIiiEEPNSt7__cxx1112basic_stringIcSt11char_traitsIcESaIcEEERKT_RKT0_PKc(ptr noundef nonnull align 4 dereferenceable(4) %v1, ptr noundef nonnull align 4 dereferenceable(4) %v2, ptr noundef %exprtext) #5 comdat {
entry:
  %v1.addr = alloca ptr, align 8
  %v2.addr = alloca ptr, align 8
  %exprtext.addr = alloca ptr, align 8
  store ptr %v1, ptr %v1.addr, align 8
  store ptr %v2, ptr %v2.addr, align 8
  store ptr %exprtext, ptr %exprtext.addr, align 8
  %0 = load ptr, ptr %v1.addr, align 8
  %1 = load i32, ptr %0, align 4
  %2 = load ptr, ptr %v2.addr, align 8
  %3 = load i32, ptr %2, align 4
  %cmp = icmp sle i32 %1, %3
  br i1 %cmp, label %cond.true, label %cond.false

cond.true:                                        ; preds = %entry
  br label %cond.end

cond.false:                                       ; preds = %entry
  %4 = load ptr, ptr %v1.addr, align 8
  %5 = load i32, ptr %4, align 4
  %conv = sext i32 %5 to i64
  %6 = load ptr, ptr %v2.addr, align 8
  %7 = load i32, ptr %6, align 4
  %conv1 = sext i32 %7 to i64
  %8 = load ptr, ptr %exprtext.addr, align 8
  %call = call noundef nonnull ptr @_ZN4absl12lts_2023080212log_internal17MakeCheckOpStringIllEEPNSt7__cxx1112basic_stringIcSt11char_traitsIcESaIcEEET_T0_PKc(i64 noundef %conv, i64 noundef %conv1, ptr noundef %8)
  br label %cond.end

cond.end:                                         ; preds = %cond.false, %cond.true
  %cond = phi ptr [ null, %cond.true ], [ %call, %cond.false ]
  ret ptr %cond
}

; Function Attrs: mustprogress uwtable
define linkonce_odr hidden noundef ptr @_ZN4absl12lts_2023080212log_internal12Check_GTImplIiiEEPNSt7__cxx1112basic_stringIcSt11char_traitsIcESaIcEEERKT_RKT0_PKc(ptr noundef nonnull align 4 dereferenceable(4) %v1, ptr noundef nonnull align 4 dereferenceable(4) %v2, ptr noundef %exprtext) #5 comdat {
entry:
  %v1.addr = alloca ptr, align 8
  %v2.addr = alloca ptr, align 8
  %exprtext.addr = alloca ptr, align 8
  store ptr %v1, ptr %v1.addr, align 8
  store ptr %v2, ptr %v2.addr, align 8
  store ptr %exprtext, ptr %exprtext.addr, align 8
  %0 = load ptr, ptr %v1.addr, align 8
  %1 = load i32, ptr %0, align 4
  %2 = load ptr, ptr %v2.addr, align 8
  %3 = load i32, ptr %2, align 4
  %cmp = icmp sgt i32 %1, %3
  br i1 %cmp, label %cond.true, label %cond.false

cond.true:                                        ; preds = %entry
  br label %cond.end

cond.false:                                       ; preds = %entry
  %4 = load ptr, ptr %v1.addr, align 8
  %5 = load i32, ptr %4, align 4
  %conv = sext i32 %5 to i64
  %6 = load ptr, ptr %v2.addr, align 8
  %7 = load i32, ptr %6, align 4
  %conv1 = sext i32 %7 to i64
  %8 = load ptr, ptr %exprtext.addr, align 8
  %call = call noundef nonnull ptr @_ZN4absl12lts_2023080212log_internal17MakeCheckOpStringIllEEPNSt7__cxx1112basic_stringIcSt11char_traitsIcESaIcEEET_T0_PKc(i64 noundef %conv, i64 noundef %conv1, ptr noundef %8)
  br label %cond.end

cond.end:                                         ; preds = %cond.false, %cond.true
  %cond = phi ptr [ null, %cond.true ], [ %call, %cond.false ]
  ret ptr %cond
}

; Function Attrs: mustprogress uwtable
define linkonce_odr hidden noundef ptr @_ZN4absl12lts_2023080212log_internal12Check_GEImplB5cxx11EiiPKc(i32 noundef %v1, i32 noundef %v2, ptr noundef %exprtext) #5 comdat {
entry:
  %v1.addr = alloca i32, align 4
  %v2.addr = alloca i32, align 4
  %exprtext.addr = alloca ptr, align 8
  store i32 %v1, ptr %v1.addr, align 4
  store i32 %v2, ptr %v2.addr, align 4
  store ptr %exprtext, ptr %exprtext.addr, align 8
  %0 = load ptr, ptr %exprtext.addr, align 8
  %call = call noundef ptr @_ZN4absl12lts_2023080212log_internal12Check_GEImplIiiEEPNSt7__cxx1112basic_stringIcSt11char_traitsIcESaIcEEERKT_RKT0_PKc(ptr noundef nonnull align 4 dereferenceable(4) %v1.addr, ptr noundef nonnull align 4 dereferenceable(4) %v2.addr, ptr noundef %0)
  ret ptr %call
}

; Function Attrs: mustprogress uwtable
define linkonce_odr hidden noundef ptr @_ZN4absl12lts_2023080212log_internal12Check_LEImplB5cxx11EiiPKc(i32 noundef %v1, i32 noundef %v2, ptr noundef %exprtext) #5 comdat {
entry:
  %v1.addr = alloca i32, align 4
  %v2.addr = alloca i32, align 4
  %exprtext.addr = alloca ptr, align 8
  store i32 %v1, ptr %v1.addr, align 4
  store i32 %v2, ptr %v2.addr, align 4
  store ptr %exprtext, ptr %exprtext.addr, align 8
  %0 = load ptr, ptr %exprtext.addr, align 8
  %call = call noundef ptr @_ZN4absl12lts_2023080212log_internal12Check_LEImplIiiEEPNSt7__cxx1112basic_stringIcSt11char_traitsIcESaIcEEERKT_RKT0_PKc(ptr noundef nonnull align 4 dereferenceable(4) %v1.addr, ptr noundef nonnull align 4 dereferenceable(4) %v2.addr, ptr noundef %0)
  ret ptr %call
}

; Function Attrs: mustprogress nounwind uwtable
define linkonce_odr hidden noundef nonnull align 8 dereferenceable(16) ptr @_ZN4absl12lts_2023080212log_internal10LogMessage14InternalStreamEv(ptr noundef nonnull align 8 dereferenceable(16) %this) #4 comdat align 2 {
entry:
  %this.addr = alloca ptr, align 8
  store ptr %this, ptr %this.addr, align 8
  %this1 = load ptr, ptr %this.addr, align 8
  ret ptr %this1
}

; Function Attrs: mustprogress uwtable
define linkonce_odr hidden noundef ptr @_ZN4absl12lts_2023080212log_internal12Check_GTImplB5cxx11EiiPKc(i32 noundef %v1, i32 noundef %v2, ptr noundef %exprtext) #5 comdat {
entry:
  %v1.addr = alloca i32, align 4
  %v2.addr = alloca i32, align 4
  %exprtext.addr = alloca ptr, align 8
  store i32 %v1, ptr %v1.addr, align 4
  store i32 %v2, ptr %v2.addr, align 4
  store ptr %exprtext, ptr %exprtext.addr, align 8
  %0 = load ptr, ptr %exprtext.addr, align 8
  %call = call noundef ptr @_ZN4absl12lts_2023080212log_internal12Check_GTImplIiiEEPNSt7__cxx1112basic_stringIcSt11char_traitsIcESaIcEEERKT_RKT0_PKc(ptr noundef nonnull align 4 dereferenceable(4) %v1.addr, ptr noundef nonnull align 4 dereferenceable(4) %v2.addr, ptr noundef %0)
  ret ptr %call
}

; Function Attrs: mustprogress nounwind uwtable
define linkonce_odr hidden noundef i32 @_ZN4absl12lts_2023080212log_internal21GetReferenceableValueEi(i32 noundef %t) #4 comdat {
entry:
  %t.addr = alloca i32, align 4
  store i32 %t, ptr %t.addr, align 4
  %0 = load i32, ptr %t.addr, align 4
  ret i32 %0
}

; Function Attrs: mustprogress uwtable
define void @_ZN6google8protobuf2io16ArrayInputStream6BackUpEi(ptr noundef nonnull align 8 dereferenceable(32) %this, i32 noundef %count) unnamed_addr #5 align 2 personality ptr @__gxx_personality_v0 {
entry:
  %this.addr = alloca ptr, align 8
  %count.addr = alloca i32, align 4
  %absl_log_internal_check_op_result = alloca ptr, align 8
  %ref.tmp = alloca %"class.absl::lts_20230802::log_internal::LogMessageFatal", align 8
  %agg.tmp = alloca %"class.std::basic_string_view", align 8
  %exn.slot = alloca ptr, align 8
  %ehselector.slot = alloca i32, align 4
  %absl_log_internal_check_op_result9 = alloca ptr, align 8
  %ref.tmp16 = alloca %"class.absl::lts_20230802::log_internal::LogMessageFatal", align 8
  %agg.tmp17 = alloca %"class.std::basic_string_view", align 8
  %absl_log_internal_check_op_result24 = alloca ptr, align 8
  %ref.tmp30 = alloca %"class.absl::lts_20230802::log_internal::LogMessageFatal", align 8
  %agg.tmp31 = alloca %"class.std::basic_string_view", align 8
  store ptr %this, ptr %this.addr, align 8
  store i32 %count, ptr %count.addr, align 4
  %this1 = load ptr, ptr %this.addr, align 8
  br label %while.cond

while.cond:                                       ; preds = %entry
  %last_returned_size_ = getelementptr inbounds %"class.google::protobuf::io::ArrayInputStream", ptr %this1, i32 0, i32 5
  %0 = load i32, ptr %last_returned_size_, align 4
  %call = call noundef i32 @_ZN4absl12lts_2023080212log_internal21GetReferenceableValueEi(i32 noundef %0)
  %call2 = call noundef i32 @_ZN4absl12lts_2023080212log_internal21GetReferenceableValueEi(i32 noundef 0)
  %call3 = call noundef ptr @_ZN4absl12lts_2023080212log_internal12Check_GTImplB5cxx11EiiPKc(i32 noundef %call, i32 noundef %call2, ptr noundef @.str)
  store ptr %call3, ptr %absl_log_internal_check_op_result, align 8
  %1 = load ptr, ptr %absl_log_internal_check_op_result, align 8
  %tobool = icmp ne ptr %1, null
  br i1 %tobool, label %while.body, label %while.end

while.body:                                       ; preds = %while.cond
  %2 = load ptr, ptr %absl_log_internal_check_op_result, align 8
  %call4 = call { i64, ptr } @_ZNKSt7__cxx1112basic_stringIcSt11char_traitsIcESaIcEEcvSt17basic_string_viewIcS2_EEv(ptr noundef nonnull align 8 dereferenceable(32) %2) #3
  %3 = getelementptr inbounds { i64, ptr }, ptr %agg.tmp, i32 0, i32 0
  %4 = extractvalue { i64, ptr } %call4, 0
  store i64 %4, ptr %3, align 8
  %5 = getelementptr inbounds { i64, ptr }, ptr %agg.tmp, i32 0, i32 1
  %6 = extractvalue { i64, ptr } %call4, 1
  store ptr %6, ptr %5, align 8
  %7 = getelementptr inbounds { i64, ptr }, ptr %agg.tmp, i32 0, i32 0
  %8 = load i64, ptr %7, align 8
  %9 = getelementptr inbounds { i64, ptr }, ptr %agg.tmp, i32 0, i32 1
  %10 = load ptr, ptr %9, align 8
  call void @_ZN4absl12lts_2023080212log_internal15LogMessageFatalC1EPKciSt17basic_string_viewIcSt11char_traitsIcEE(ptr noundef nonnull align 8 dereferenceable(16) %ref.tmp, ptr noundef @.str.1, i32 noundef 62, i64 %8, ptr %10) #15
  %call5 = invoke noundef nonnull align 8 dereferenceable(16) ptr @_ZN4absl12lts_2023080212log_internal10LogMessage14InternalStreamEv(ptr noundef nonnull align 8 dereferenceable(16) %ref.tmp)
          to label %invoke.cont unwind label %lpad

invoke.cont:                                      ; preds = %while.body
  %call7 = invoke noundef nonnull align 8 dereferenceable(16) ptr @_ZN4absl12lts_2023080212log_internal10LogMessagelsILi55EEERS2_RAT__Kc(ptr noundef nonnull align 8 dereferenceable(16) %call5, ptr noundef nonnull align 1 dereferenceable(55) @.str.2)
          to label %invoke.cont6 unwind label %lpad

invoke.cont6:                                     ; preds = %invoke.cont
  call void @_ZN4absl12lts_2023080212log_internal15LogMessageFatalD1Ev(ptr noundef nonnull align 8 dereferenceable(16) %ref.tmp) #16
  unreachable

lpad:                                             ; preds = %invoke.cont, %while.body
  %11 = landingpad { ptr, i32 }
          cleanup
  %12 = extractvalue { ptr, i32 } %11, 0
  store ptr %12, ptr %exn.slot, align 8
  %13 = extractvalue { ptr, i32 } %11, 1
  store i32 %13, ptr %ehselector.slot, align 4
  call void @_ZN4absl12lts_2023080212log_internal15LogMessageFatalD1Ev(ptr noundef nonnull align 8 dereferenceable(16) %ref.tmp) #16
  unreachable

14:                                               ; No predecessors!
  br label %eh.resume

while.end:                                        ; preds = %while.cond
  br label %while.cond8

while.cond8:                                      ; preds = %while.end
  %15 = load i32, ptr %count.addr, align 4
  %call10 = call noundef i32 @_ZN4absl12lts_2023080212log_internal21GetReferenceableValueEi(i32 noundef %15)
  %last_returned_size_11 = getelementptr inbounds %"class.google::protobuf::io::ArrayInputStream", ptr %this1, i32 0, i32 5
  %16 = load i32, ptr %last_returned_size_11, align 4
  %call12 = call noundef i32 @_ZN4absl12lts_2023080212log_internal21GetReferenceableValueEi(i32 noundef %16)
  %call13 = call noundef ptr @_ZN4absl12lts_2023080212log_internal12Check_LEImplB5cxx11EiiPKc(i32 noundef %call10, i32 noundef %call12, ptr noundef @.str.3)
  store ptr %call13, ptr %absl_log_internal_check_op_result9, align 8
  %17 = load ptr, ptr %absl_log_internal_check_op_result9, align 8
  %tobool14 = icmp ne ptr %17, null
  br i1 %tobool14, label %while.body15, label %while.end22

while.body15:                                     ; preds = %while.cond8
  %18 = load ptr, ptr %absl_log_internal_check_op_result9, align 8
  %call18 = call { i64, ptr } @_ZNKSt7__cxx1112basic_stringIcSt11char_traitsIcESaIcEEcvSt17basic_string_viewIcS2_EEv(ptr noundef nonnull align 8 dereferenceable(32) %18) #3
  %19 = getelementptr inbounds { i64, ptr }, ptr %agg.tmp17, i32 0, i32 0
  %20 = extractvalue { i64, ptr } %call18, 0
  store i64 %20, ptr %19, align 8
  %21 = getelementptr inbounds { i64, ptr }, ptr %agg.tmp17, i32 0, i32 1
  %22 = extractvalue { i64, ptr } %call18, 1
  store ptr %22, ptr %21, align 8
  %23 = getelementptr inbounds { i64, ptr }, ptr %agg.tmp17, i32 0, i32 0
  %24 = load i64, ptr %23, align 8
  %25 = getelementptr inbounds { i64, ptr }, ptr %agg.tmp17, i32 0, i32 1
  %26 = load ptr, ptr %25, align 8
  call void @_ZN4absl12lts_2023080212log_internal15LogMessageFatalC1EPKciSt17basic_string_viewIcSt11char_traitsIcEE(ptr noundef nonnull align 8 dereferenceable(16) %ref.tmp16, ptr noundef @.str.1, i32 noundef 64, i64 %24, ptr %26) #15
  %call21 = invoke noundef nonnull align 8 dereferenceable(16) ptr @_ZN4absl12lts_2023080212log_internal10LogMessage14InternalStreamEv(ptr noundef nonnull align 8 dereferenceable(16) %ref.tmp16)
          to label %invoke.cont20 unwind label %lpad19

invoke.cont20:                                    ; preds = %while.body15
  call void @_ZN4absl12lts_2023080212log_internal15LogMessageFatalD1Ev(ptr noundef nonnull align 8 dereferenceable(16) %ref.tmp16) #16
  unreachable

lpad19:                                           ; preds = %while.body15
  %27 = landingpad { ptr, i32 }
          cleanup
  %28 = extractvalue { ptr, i32 } %27, 0
  store ptr %28, ptr %exn.slot, align 8
  %29 = extractvalue { ptr, i32 } %27, 1
  store i32 %29, ptr %ehselector.slot, align 4
  call void @_ZN4absl12lts_2023080212log_internal15LogMessageFatalD1Ev(ptr noundef nonnull align 8 dereferenceable(16) %ref.tmp16) #16
  unreachable

30:                                               ; No predecessors!
  br label %eh.resume

while.end22:                                      ; preds = %while.cond8
  br label %while.cond23

while.cond23:                                     ; preds = %while.end22
  %31 = load i32, ptr %count.addr, align 4
  %call25 = call noundef i32 @_ZN4absl12lts_2023080212log_internal21GetReferenceableValueEi(i32 noundef %31)
  %call26 = call noundef i32 @_ZN4absl12lts_2023080212log_internal21GetReferenceableValueEi(i32 noundef 0)
  %call27 = call noundef ptr @_ZN4absl12lts_2023080212log_internal12Check_GEImplB5cxx11EiiPKc(i32 noundef %call25, i32 noundef %call26, ptr noundef @.str.4)
  store ptr %call27, ptr %absl_log_internal_check_op_result24, align 8
  %32 = load ptr, ptr %absl_log_internal_check_op_result24, align 8
  %tobool28 = icmp ne ptr %32, null
  br i1 %tobool28, label %while.body29, label %while.end36

while.body29:                                     ; preds = %while.cond23
  %33 = load ptr, ptr %absl_log_internal_check_op_result24, align 8
  %call32 = call { i64, ptr } @_ZNKSt7__cxx1112basic_stringIcSt11char_traitsIcESaIcEEcvSt17basic_string_viewIcS2_EEv(ptr noundef nonnull align 8 dereferenceable(32) %33) #3
  %34 = getelementptr inbounds { i64, ptr }, ptr %agg.tmp31, i32 0, i32 0
  %35 = extractvalue { i64, ptr } %call32, 0
  store i64 %35, ptr %34, align 8
  %36 = getelementptr inbounds { i64, ptr }, ptr %agg.tmp31, i32 0, i32 1
  %37 = extractvalue { i64, ptr } %call32, 1
  store ptr %37, ptr %36, align 8
  %38 = getelementptr inbounds { i64, ptr }, ptr %agg.tmp31, i32 0, i32 0
  %39 = load i64, ptr %38, align 8
  %40 = getelementptr inbounds { i64, ptr }, ptr %agg.tmp31, i32 0, i32 1
  %41 = load ptr, ptr %40, align 8
  call void @_ZN4absl12lts_2023080212log_internal15LogMessageFatalC1EPKciSt17basic_string_viewIcSt11char_traitsIcEE(ptr noundef nonnull align 8 dereferenceable(16) %ref.tmp30, ptr noundef @.str.1, i32 noundef 65, i64 %39, ptr %41) #15
  %call35 = invoke noundef nonnull align 8 dereferenceable(16) ptr @_ZN4absl12lts_2023080212log_internal10LogMessage14InternalStreamEv(ptr noundef nonnull align 8 dereferenceable(16) %ref.tmp30)
          to label %invoke.cont34 unwind label %lpad33

invoke.cont34:                                    ; preds = %while.body29
  call void @_ZN4absl12lts_2023080212log_internal15LogMessageFatalD1Ev(ptr noundef nonnull align 8 dereferenceable(16) %ref.tmp30) #16
  unreachable

lpad33:                                           ; preds = %while.body29
  %42 = landingpad { ptr, i32 }
          cleanup
  %43 = extractvalue { ptr, i32 } %42, 0
  store ptr %43, ptr %exn.slot, align 8
  %44 = extractvalue { ptr, i32 } %42, 1
  store i32 %44, ptr %ehselector.slot, align 4
  call void @_ZN4absl12lts_2023080212log_internal15LogMessageFatalD1Ev(ptr noundef nonnull align 8 dereferenceable(16) %ref.tmp30) #16
  unreachable

45:                                               ; No predecessors!
  br label %eh.resume

while.end36:                                      ; preds = %while.cond23
  %46 = load i32, ptr %count.addr, align 4
  %position_ = getelementptr inbounds %"class.google::protobuf::io::ArrayInputStream", ptr %this1, i32 0, i32 4
  %47 = load i32, ptr %position_, align 8
  %sub = sub nsw i32 %47, %46
  store i32 %sub, ptr %position_, align 8
  %last_returned_size_37 = getelementptr inbounds %"class.google::protobuf::io::ArrayInputStream", ptr %this1, i32 0, i32 5
  store i32 0, ptr %last_returned_size_37, align 4
  ret void

eh.resume:                                        ; preds = %45, %30, %14
  %exn = load ptr, ptr %exn.slot, align 8
  %sel = load i32, ptr %ehselector.slot, align 4
  %lpad.val = insertvalue { ptr, i32 } poison, ptr %exn, 0
  %lpad.val38 = insertvalue { ptr, i32 } %lpad.val, i32 %sel, 1
  resume { ptr, i32 } %lpad.val38
}