; Function Attrs: mustprogress uwtable
define void @_ZN6google8protobuf2io16ArrayInputStream6BackUpEi(ptr nocapture noundef nonnull align 8 dereferenceable(32) %this, i32 noundef %count) unnamed_addr #5 align 2 personality ptr @__gxx_personality_v0 {
entry:
  %ref.tmp = alloca %"class.absl::lts_20230802::log_internal::LogMessageFatal", align 8
  %ref.tmp16 = alloca %"class.absl::lts_20230802::log_internal::LogMessageFatal", align 8
  %ref.tmp30 = alloca %"class.absl::lts_20230802::log_internal::LogMessageFatal", align 8
  %last_returned_size_ = getelementptr inbounds i8, ptr %this, i64 28
  %0 = load i32, ptr %last_returned_size_, align 4
  %cmp.i.i = icmp sgt i32 %0, 0
  br i1 %cmp.i.i, label %while.cond8, label %while.body

while.body:                                       ; preds = %entry
  %conv.i.i = sext i32 %0 to i64
  %call.i.i = tail call noundef nonnull ptr @_ZN4absl12lts_2023080212log_internal17MakeCheckOpStringIllEEPNSt7__cxx1112basic_stringIcSt11char_traitsIcESaIcEEET_T0_PKc(i64 noundef %conv.i.i, i64 noundef 0, ptr noundef nonnull @.str)
  %call4 = tail call { i64, ptr } @_ZNKSt7__cxx1112basic_stringIcSt11char_traitsIcESaIcEEcvSt17basic_string_viewIcS2_EEv(ptr noundef nonnull align 8 dereferenceable(32) %call.i.i) #25
  %1 = extractvalue { i64, ptr } %call4, 0
  %2 = extractvalue { i64, ptr } %call4, 1
  call void @_ZN4absl12lts_2023080212log_internal15LogMessageFatalC1EPKciSt17basic_string_viewIcSt11char_traitsIcEE(ptr noundef nonnull align 8 dereferenceable(16) %ref.tmp, ptr noundef nonnull @.str.1, i32 noundef 62, i64 %1, ptr %2) #26
  %call7 = invoke noundef nonnull align 8 dereferenceable(16) ptr @_ZN4absl12lts_2023080212log_internal10LogMessagelsILi55EEERS2_RAT__Kc(ptr noundef nonnull align 8 dereferenceable(16) %ref.tmp, ptr noundef nonnull align 1 dereferenceable(55) @.str.2)
          to label %invoke.cont6 unwind label %lpad

invoke.cont6:                                     ; preds = %while.body
  call void @_ZN4absl12lts_2023080212log_internal15LogMessageFatalD1Ev(ptr noundef nonnull align 8 dereferenceable(16) %ref.tmp) #27
  unreachable

lpad:                                             ; preds = %while.body
  %3 = landingpad { ptr, i32 }
          cleanup
  call void @_ZN4absl12lts_2023080212log_internal15LogMessageFatalD1Ev(ptr noundef nonnull align 8 dereferenceable(16) %ref.tmp) #27
  unreachable

while.cond8:                                      ; preds = %entry
  %cmp.not.i.i = icmp slt i32 %0, %count
  br i1 %cmp.not.i.i, label %while.body15, label %while.cond23

while.body15:                                     ; preds = %while.cond8
  %conv.i.i8 = zext nneg i32 %count to i64
  %conv1.i.i = zext nneg i32 %0 to i64
  %call.i.i9 = tail call noundef nonnull ptr @_ZN4absl12lts_2023080212log_internal17MakeCheckOpStringIllEEPNSt7__cxx1112basic_stringIcSt11char_traitsIcESaIcEEET_T0_PKc(i64 noundef %conv.i.i8, i64 noundef %conv1.i.i, ptr noundef nonnull @.str.3)
  %call18 = tail call { i64, ptr } @_ZNKSt7__cxx1112basic_stringIcSt11char_traitsIcESaIcEEcvSt17basic_string_viewIcS2_EEv(ptr noundef nonnull align 8 dereferenceable(32) %call.i.i9) #25
  %4 = extractvalue { i64, ptr } %call18, 0
  %5 = extractvalue { i64, ptr } %call18, 1
  call void @_ZN4absl12lts_2023080212log_internal15LogMessageFatalC1EPKciSt17basic_string_viewIcSt11char_traitsIcEE(ptr noundef nonnull align 8 dereferenceable(16) %ref.tmp16, ptr noundef nonnull @.str.1, i32 noundef 64, i64 %4, ptr %5) #26
  call void @_ZN4absl12lts_2023080212log_internal15LogMessageFatalD1Ev(ptr noundef nonnull align 8 dereferenceable(16) %ref.tmp16) #27
  unreachable

while.cond23:                                     ; preds = %while.cond8
  %cmp.not.i.i10 = icmp slt i32 %count, 0
  br i1 %cmp.not.i.i10, label %while.body29, label %while.end36

while.body29:                                     ; preds = %while.cond23
  %conv.i.i13 = sext i32 %count to i64
  %call.i.i14 = tail call noundef nonnull ptr @_ZN4absl12lts_2023080212log_internal17MakeCheckOpStringIllEEPNSt7__cxx1112basic_stringIcSt11char_traitsIcESaIcEEET_T0_PKc(i64 noundef %conv.i.i13, i64 noundef 0, ptr noundef nonnull @.str.4)
  %call32 = tail call { i64, ptr } @_ZNKSt7__cxx1112basic_stringIcSt11char_traitsIcESaIcEEcvSt17basic_string_viewIcS2_EEv(ptr noundef nonnull align 8 dereferenceable(32) %call.i.i14) #25
  %6 = extractvalue { i64, ptr } %call32, 0
  %7 = extractvalue { i64, ptr } %call32, 1
  call void @_ZN4absl12lts_2023080212log_internal15LogMessageFatalC1EPKciSt17basic_string_viewIcSt11char_traitsIcEE(ptr noundef nonnull align 8 dereferenceable(16) %ref.tmp30, ptr noundef nonnull @.str.1, i32 noundef 65, i64 %6, ptr %7) #26
  call void @_ZN4absl12lts_2023080212log_internal15LogMessageFatalD1Ev(ptr noundef nonnull align 8 dereferenceable(16) %ref.tmp30) #27
  unreachable

while.end36:                                      ; preds = %while.cond23
  %position_ = getelementptr inbounds i8, ptr %this, i64 24
  %8 = load i32, ptr %position_, align 8
  %sub = sub nsw i32 %8, %count
  store i32 %sub, ptr %position_, align 8
  store i32 0, ptr %last_returned_size_, align 4
  ret void
}